target datalayout = "e-m:e-p270:32:32-p271:32:32-p272:64:64-i64:64-i128:128-f80:128-n8:16:32:64-S128"
target triple = "x86_64-pc-linux-gnu"

%struct._zend_phar_globals = type { %struct._zend_array, %struct._zend_array, ptr, %struct._zend_array, i32, i32, ptr, i32, i32, i32, i32, i8, i8, i8, i32, i32, i32, i32, ptr, ptr, ptr, ptr, ptr, ptr, ptr, ptr, ptr, ptr, ptr, ptr, ptr, ptr, ptr, ptr, ptr, ptr, ptr, ptr, ptr, ptr, ptr, i32, i32, ptr, i32, ptr, i32, ptr, i32, ptr, %struct._zend_array }
%struct._zend_array = type { %struct._zend_refcounted_h, %union.anon.0, i32, %union.anon.1, i32, i32, i32, i32, i64, ptr }
%struct._zend_refcounted_h = type { i32, %union.anon }
%union.anon = type { i32 }
%union.anon.0 = type { i32 }
%union.anon.1 = type { ptr }
%struct._zval_struct = type { %union._zend_value, %union.anon.3, %union.anon.6 }
%union._zend_value = type { i64 }
%union.anon.3 = type { i32 }
%union.anon.6 = type { i32 }
%struct._phar_archive_data = type { ptr, i32, ptr, i32, ptr, i32, [12 x i8], i64, i64, %struct._zend_array, %struct._zend_array, %struct._zend_array, i32, i32, i32, ptr, ptr, i32, i32, i32, ptr, %struct._phar_metadata_tracker, i32, i16 }
%struct._phar_metadata_tracker = type { %struct._zval_struct, ptr }
%struct._Bucket = type { %struct._zval_struct, i64, ptr }
%struct._phar_entry_fp = type { ptr, ptr, ptr }

@phar_globals = hidden global %struct._zend_phar_globals zeroinitializer, align 8
@cached_phars = hidden global %struct._zend_array zeroinitializer, align 8
@module_registry = external global %struct._zend_array, align 8
@.str.121 = private unnamed_addr constant [4 x i8] c"bz2\00", align 1
@.str.122 = private unnamed_addr constant [5 x i8] c"zlib\00", align 1

; Function Attrs: nounwind uwtable
define hidden void @phar_request_initialize() #0 {
  %1 = alloca ptr, align 8
  %2 = alloca ptr, align 8
  %3 = alloca i64, align 8
  %4 = alloca ptr, align 8
  %5 = alloca ptr, align 8
  %6 = alloca i64, align 8
  %7 = alloca ptr, align 8
  %8 = alloca ptr, align 8
  %9 = alloca ptr, align 8
  %10 = alloca ptr, align 8
  %11 = alloca ptr, align 8
  %12 = alloca ptr, align 8
  %13 = alloca ptr, align 8
  %14 = alloca ptr, align 8
  %15 = alloca ptr, align 8
  %16 = load i32, ptr getelementptr inbounds (%struct._zend_phar_globals, ptr @phar_globals, i32 0, i32 14), align 4
  %17 = icmp ne i32 %16, 0
  br i1 %17, label %102, label %18

18:                                               ; preds = %0
  store ptr null, ptr getelementptr inbounds (%struct._zend_phar_globals, ptr @phar_globals, i32 0, i32 49), align 8
  store ptr null, ptr getelementptr inbounds (%struct._zend_phar_globals, ptr @phar_globals, i32 0, i32 47), align 8
  store ptr null, ptr getelementptr inbounds (%struct._zend_phar_globals, ptr @phar_globals, i32 0, i32 45), align 8
  store ptr @module_registry, ptr %1, align 8
  store ptr @.str.121, ptr %2, align 8
  store i64 3, ptr %3, align 8
  %19 = load ptr, ptr %1, align 8
  %20 = load ptr, ptr %2, align 8
  %21 = load i64, ptr %3, align 8
  %22 = call ptr @zend_hash_str_find(ptr noundef %19, ptr noundef %20, i64 noundef %21) #13
  %23 = icmp ne ptr %22, null
  %24 = zext i1 %23 to i32
  store i32 %24, ptr getelementptr inbounds (%struct._zend_phar_globals, ptr @phar_globals, i32 0, i32 10), align 4
  store ptr @module_registry, ptr %4, align 8
  store ptr @.str.122, ptr %5, align 8
  store i64 4, ptr %6, align 8
  %25 = load ptr, ptr %4, align 8
  %26 = load ptr, ptr %5, align 8
  %27 = load i64, ptr %6, align 8
  %28 = call ptr @zend_hash_str_find(ptr noundef %25, ptr noundef %26, i64 noundef %27) #13
  %29 = icmp ne ptr %28, null
  %30 = zext i1 %29 to i32
  store i32 %30, ptr getelementptr inbounds (%struct._zend_phar_globals, ptr @phar_globals, i32 0, i32 9), align 8
  store i32 1, ptr getelementptr inbounds (%struct._zend_phar_globals, ptr @phar_globals, i32 0, i32 14), align 4
  store i32 0, ptr getelementptr inbounds (%struct._zend_phar_globals, ptr @phar_globals, i32 0, i32 17), align 8
  store i32 0, ptr getelementptr inbounds (%struct._zend_phar_globals, ptr @phar_globals, i32 0, i32 16), align 4
  call void @_zend_hash_init(ptr noundef getelementptr inbounds (%struct._zend_phar_globals, ptr @phar_globals, i32 0, i32 1), i32 noundef 5, ptr noundef @destroy_phar_data, i1 noundef zeroext false)
  call void @_zend_hash_init(ptr noundef @phar_globals, i32 noundef 5, ptr noundef null, i1 noundef zeroext false)
  call void @_zend_hash_init(ptr noundef getelementptr inbounds (%struct._zend_phar_globals, ptr @phar_globals, i32 0, i32 3), i32 noundef 5, ptr noundef null, i1 noundef zeroext false)
  %31 = load i32, ptr getelementptr inbounds (%struct._zend_phar_globals, ptr @phar_globals, i32 0, i32 7), align 8
  %32 = icmp ne i32 %31, 0
  br i1 %32, label %33, label %101

33:                                               ; preds = %18
  store ptr @cached_phars, ptr %8, align 8
  %34 = load ptr, ptr %8, align 8
  %35 = getelementptr inbounds %struct._zend_array, ptr %34, i32 0, i32 5
  %36 = load i32, ptr %35, align 4
  %37 = zext i32 %36 to i64
  %38 = call noalias ptr @_ecalloc(i64 noundef %37, i64 noundef 24) #16
  store ptr %38, ptr %11, align 8
  br label %39

39:                                               ; preds = %33
  store ptr @cached_phars, ptr %12, align 8
  %40 = load ptr, ptr %12, align 8
  %41 = getelementptr inbounds %struct._zend_array, ptr %40, i32 0, i32 3
  %42 = load ptr, ptr %41, align 8
  %43 = getelementptr inbounds %struct._Bucket, ptr %42, i64 0
  store ptr %43, ptr %13, align 8
  %44 = load ptr, ptr %12, align 8
  %45 = getelementptr inbounds %struct._zend_array, ptr %44, i32 0, i32 3
  %46 = load ptr, ptr %45, align 8
  %47 = load ptr, ptr %12, align 8
  %48 = getelementptr inbounds %struct._zend_array, ptr %47, i32 0, i32 4
  %49 = load i32, ptr %48, align 8
  %50 = zext i32 %49 to i64
  %51 = getelementptr inbounds %struct._Bucket, ptr %46, i64 %50
  store ptr %51, ptr %14, align 8
  %52 = load ptr, ptr %12, align 8
  %53 = getelementptr inbounds %struct._zend_array, ptr %52, i32 0, i32 1
  %54 = load i32, ptr %53, align 8
  %55 = and i32 %54, 4
  %56 = icmp ne i32 %55, 0
  %57 = xor i1 %56, true
  call void @llvm.assume(i1 %57)
  br label %58

58:                                               ; preds = %95, %39
  %59 = load ptr, ptr %13, align 8
  %60 = load ptr, ptr %14, align 8
  %61 = icmp ne ptr %59, %60
  br i1 %61, label %62, label %98

62:                                               ; preds = %58
  %63 = load ptr, ptr %13, align 8
  %64 = getelementptr inbounds %struct._Bucket, ptr %63, i32 0, i32 0
  store ptr %64, ptr %15, align 8
  %65 = load ptr, ptr %15, align 8
  store ptr %65, ptr %7, align 8
  %66 = load ptr, ptr %7, align 8
  %67 = getelementptr inbounds %struct._zval_struct, ptr %66, i32 0, i32 1
  %68 = load i8, ptr %67, align 8
  %69 = zext i8 %68 to i32
  %70 = icmp eq i32 %69, 0
  %71 = xor i1 %70, true
  %72 = xor i1 %71, true
  %73 = zext i1 %72 to i32
  %74 = sext i32 %73 to i64
  %75 = icmp ne i64 %74, 0
  br i1 %75, label %76, label %77

76:                                               ; preds = %62
  br label %95

77:                                               ; preds = %62
  %78 = load ptr, ptr %15, align 8
  %79 = getelementptr inbounds %struct._zval_struct, ptr %78, i32 0, i32 0
  %80 = load ptr, ptr %79, align 8
  store ptr %80, ptr %10, align 8
  %81 = load ptr, ptr %10, align 8
  %82 = getelementptr inbounds %struct._phar_archive_data, ptr %81, i32 0, i32 9
  store ptr %82, ptr %9, align 8
  %83 = load ptr, ptr %9, align 8
  %84 = getelementptr inbounds %struct._zend_array, ptr %83, i32 0, i32 5
  %85 = load i32, ptr %84, align 4
  %86 = zext i32 %85 to i64
  %87 = call noalias ptr @_ecalloc(i64 noundef %86, i64 noundef 16) #16
  %88 = load ptr, ptr %11, align 8
  %89 = load ptr, ptr %10, align 8
  %90 = getelementptr inbounds %struct._phar_archive_data, ptr %89, i32 0, i32 22
  %91 = load i32, ptr %90, align 8
  %92 = zext i32 %91 to i64
  %93 = getelementptr inbounds %struct._phar_entry_fp, ptr %88, i64 %92
  %94 = getelementptr inbounds %struct._phar_entry_fp, ptr %93, i32 0, i32 2
  store ptr %87, ptr %94, align 8
  br label %95

95:                                               ; preds = %77, %76
  %96 = load ptr, ptr %13, align 8
  %97 = getelementptr inbounds %struct._Bucket, ptr %96, i32 1
  store ptr %97, ptr %13, align 8
  br label %58

98:                                               ; preds = %58
  br label %99

99:                                               ; preds = %98
  %100 = load ptr, ptr %11, align 8
  store ptr %100, ptr getelementptr inbounds (%struct._zend_phar_globals, ptr @phar_globals, i32 0, i32 2), align 8
  br label %101

101:                                              ; preds = %99, %18
  store i32 0, ptr getelementptr inbounds (%struct._zend_phar_globals, ptr @phar_globals, i32 0, i32 4), align 8
  store ptr null, ptr getelementptr inbounds (%struct._zend_phar_globals, ptr @phar_globals, i32 0, i32 40), align 8
  store i32 0, ptr getelementptr inbounds (%struct._zend_phar_globals, ptr @phar_globals, i32 0, i32 41), align 8
  store i32 0, ptr getelementptr inbounds (%struct._zend_phar_globals, ptr @phar_globals, i32 0, i32 42), align 4
  br label %102

102:                                              ; preds = %101, %0
  ret void
}