; Function Attrs: nounwind uwtable
define hidden void @phar_request_initialize() local_unnamed_addr #0 {
  %1 = load i32, ptr getelementptr inbounds (%struct._zend_phar_globals, ptr @phar_globals, i64 0, i32 14), align 4
  %.not = icmp eq i32 %1, 0
  br i1 %.not, label %2, label %36

2:                                                ; preds = %0
  store ptr null, ptr getelementptr inbounds (%struct._zend_phar_globals, ptr @phar_globals, i64 0, i32 49), align 8
  store ptr null, ptr getelementptr inbounds (%struct._zend_phar_globals, ptr @phar_globals, i64 0, i32 47), align 8
  store ptr null, ptr getelementptr inbounds (%struct._zend_phar_globals, ptr @phar_globals, i64 0, i32 45), align 8
  %3 = tail call ptr @zend_hash_str_find(ptr noundef nonnull @module_registry, ptr noundef nonnull @.str.121, i64 noundef 3) #23
  %4 = icmp ne ptr %3, null
  %5 = zext i1 %4 to i32
  store i32 %5, ptr getelementptr inbounds (%struct._zend_phar_globals, ptr @phar_globals, i64 0, i32 10), align 4
  %6 = tail call ptr @zend_hash_str_find(ptr noundef nonnull @module_registry, ptr noundef nonnull @.str.122, i64 noundef 4) #23
  %7 = icmp ne ptr %6, null
  %8 = zext i1 %7 to i32
  store i32 %8, ptr getelementptr inbounds (%struct._zend_phar_globals, ptr @phar_globals, i64 0, i32 9), align 8
  store i32 1, ptr getelementptr inbounds (%struct._zend_phar_globals, ptr @phar_globals, i64 0, i32 14), align 4
  store i32 0, ptr getelementptr inbounds (%struct._zend_phar_globals, ptr @phar_globals, i64 0, i32 17), align 8
  store i32 0, ptr getelementptr inbounds (%struct._zend_phar_globals, ptr @phar_globals, i64 0, i32 16), align 4
  tail call void @_zend_hash_init(ptr noundef nonnull getelementptr inbounds (%struct._zend_phar_globals, ptr @phar_globals, i64 0, i32 1), i32 noundef 5, ptr noundef nonnull @destroy_phar_data, i1 noundef zeroext false) #23
  tail call void @_zend_hash_init(ptr noundef nonnull @phar_globals, i32 noundef 5, ptr noundef null, i1 noundef zeroext false) #23
  tail call void @_zend_hash_init(ptr noundef nonnull getelementptr inbounds (%struct._zend_phar_globals, ptr @phar_globals, i64 0, i32 3), i32 noundef 5, ptr noundef null, i1 noundef zeroext false) #23
  %9 = load i32, ptr getelementptr inbounds (%struct._zend_phar_globals, ptr @phar_globals, i64 0, i32 7), align 8
  %.not22 = icmp eq i32 %9, 0
  br i1 %.not22, label %35, label %10

10:                                               ; preds = %2
  %11 = load i32, ptr getelementptr inbounds (%struct._zend_array, ptr @cached_phars, i64 0, i32 5), align 4
  %12 = zext i32 %11 to i64
  %13 = tail call noalias ptr @_ecalloc(i64 noundef %12, i64 noundef 24) #26
  %14 = load ptr, ptr getelementptr inbounds (%struct._zend_array, ptr @cached_phars, i64 0, i32 3), align 8
  %15 = load i32, ptr getelementptr inbounds (%struct._zend_array, ptr @cached_phars, i64 0, i32 4), align 8
  %16 = zext i32 %15 to i64
  %17 = getelementptr inbounds %struct._Bucket, ptr %14, i64 %16
  %18 = load i32, ptr getelementptr inbounds (%struct._zend_array, ptr @cached_phars, i64 0, i32 1), align 8
  %19 = and i32 %18, 4
  %.not23 = icmp eq i32 %19, 0
  tail call void @llvm.assume(i1 %.not23)
  %.not2425 = icmp eq i32 %15, 0
  br i1 %.not2425, label %._crit_edge, label %.lr.ph

.lr.ph:                                           ; preds = %10, %33
  %.026 = phi ptr [ %34, %33 ], [ %14, %10 ]
  %20 = getelementptr inbounds i8, ptr %.026, i64 8
  %21 = load i8, ptr %20, align 8
  %22 = icmp eq i8 %21, 0
  br i1 %22, label %33, label %23

23:                                               ; preds = %.lr.ph
  %24 = load ptr, ptr %.026, align 8
  %25 = getelementptr inbounds i8, ptr %24, i64 100
  %26 = load i32, ptr %25, align 4
  %27 = zext i32 %26 to i64
  %28 = tail call noalias ptr @_ecalloc(i64 noundef %27, i64 noundef 16) #26
  %29 = getelementptr inbounds i8, ptr %24, i64 320
  %30 = load i32, ptr %29, align 8
  %31 = zext i32 %30 to i64
  %32 = getelementptr inbounds %struct._phar_entry_fp, ptr %13, i64 %31, i32 2
  store ptr %28, ptr %32, align 8
  br label %33

33:                                               ; preds = %.lr.ph, %23
  %34 = getelementptr inbounds i8, ptr %.026, i64 32
  %.not24 = icmp eq ptr %34, %17
  br i1 %.not24, label %._crit_edge, label %.lr.ph

._crit_edge:                                      ; preds = %33, %10
  store ptr %13, ptr getelementptr inbounds (%struct._zend_phar_globals, ptr @phar_globals, i64 0, i32 2), align 8
  br label %35

35:                                               ; preds = %._crit_edge, %2
  store i32 0, ptr getelementptr inbounds (%struct._zend_phar_globals, ptr @phar_globals, i64 0, i32 4), align 8
  tail call void @llvm.memset.p0.i64(ptr noundef nonnull align 8 dereferenceable(16) getelementptr inbounds (%struct._zend_phar_globals, ptr @phar_globals, i64 0, i32 40), i8 0, i64 16, i1 false)
  br label %36

36:                                               ; preds = %35, %0
  ret void
}